target datalayout = "e-m:e-p270:32:32-p271:32:32-p272:64:64-i64:64-i128:128-f80:128-n8:16:32:64-S128"
target triple = "x86_64-pc-linux-gnu"

%"class.boost::iostreams::detail::bzip2_base" = type <{ %"struct.boost::iostreams::bzip2_params", ptr, i8, [7 x i8] }>
%"struct.boost::iostreams::bzip2_params" = type { %union.anon.0, i32 }
%union.anon.0 = type { i32 }
%struct.bz_stream = type { ptr, i32, i32, i32, ptr, i32, i32, i32, ptr, ptr, ptr, ptr }

; Function Attrs: mustprogress nounwind uwtable
define void @_ZN5boost9iostreams6detail10bzip2_base6beforeERPKcS4_RPcS6_(ptr noundef nonnull align 8 dereferenceable(17) %0, ptr noundef nonnull align 8 dereferenceable(8) %1, ptr noundef %2, ptr noundef nonnull align 8 dereferenceable(8) %3, ptr noundef %4) #2 align 2 {
  %6 = alloca ptr, align 8
  %7 = alloca ptr, align 8
  %8 = alloca ptr, align 8
  %9 = alloca ptr, align 8
  %10 = alloca ptr, align 8
  %11 = alloca ptr, align 8
  store ptr %0, ptr %6, align 8, !tbaa !3
  store ptr %1, ptr %7, align 8, !tbaa !3
  store ptr %2, ptr %8, align 8, !tbaa !3
  store ptr %3, ptr %9, align 8, !tbaa !3
  store ptr %4, ptr %10, align 8, !tbaa !3
  %12 = load ptr, ptr %6, align 8
  call void @llvm.lifetime.start.p0(i64 8, ptr %11) #15
  %13 = getelementptr inbounds nuw %"class.boost::iostreams::detail::bzip2_base", ptr %12, i32 0, i32 1
  %14 = load ptr, ptr %13, align 8, !tbaa !24
  store ptr %14, ptr %11, align 8, !tbaa !3
  %15 = load ptr, ptr %7, align 8, !tbaa !3
  %16 = load ptr, ptr %15, align 8, !tbaa !3
  %17 = load ptr, ptr %11, align 8, !tbaa !3
  %18 = getelementptr inbounds nuw %struct.bz_stream, ptr %17, i32 0, i32 0
  store ptr %16, ptr %18, align 8, !tbaa !29
  %19 = load ptr, ptr %8, align 8, !tbaa !3
  %20 = load ptr, ptr %7, align 8, !tbaa !3
  %21 = load ptr, ptr %20, align 8, !tbaa !3
  %22 = ptrtoint ptr %19 to i64
  %23 = ptrtoint ptr %21 to i64
  %24 = sub i64 %22, %23
  %25 = trunc i64 %24 to i32
  %26 = load ptr, ptr %11, align 8, !tbaa !3
  %27 = getelementptr inbounds nuw %struct.bz_stream, ptr %26, i32 0, i32 1
  store i32 %25, ptr %27, align 8, !tbaa !31
  %28 = load ptr, ptr %9, align 8, !tbaa !3
  %29 = load ptr, ptr %28, align 8, !tbaa !3
  %30 = load ptr, ptr %11, align 8, !tbaa !3
  %31 = getelementptr inbounds nuw %struct.bz_stream, ptr %30, i32 0, i32 4
  store ptr %29, ptr %31, align 8, !tbaa !32
  %32 = load ptr, ptr %10, align 8, !tbaa !3
  %33 = load ptr, ptr %9, align 8, !tbaa !3
  %34 = load ptr, ptr %33, align 8, !tbaa !3
  %35 = ptrtoint ptr %32 to i64
  %36 = ptrtoint ptr %34 to i64
  %37 = sub i64 %35, %36
  %38 = trunc i64 %37 to i32
  %39 = load ptr, ptr %11, align 8, !tbaa !3
  %40 = getelementptr inbounds nuw %struct.bz_stream, ptr %39, i32 0, i32 5
  store i32 %38, ptr %40, align 8, !tbaa !33
  call void @llvm.lifetime.end.p0(i64 8, ptr %11) #15
  ret void
}