; Function Attrs: mustprogress nofree norecurse nosync nounwind willreturn memory(write, argmem: readwrite, inaccessiblemem: none) uwtable
define void @_ZN5boost9iostreams6detail10bzip2_base6beforeERPKcS4_RPcS6_(ptr nocapture noundef nonnull readonly align 8 dereferenceable(17) %0, ptr nocapture noundef nonnull readonly align 8 dereferenceable(8) %1, ptr noundef %2, ptr nocapture noundef nonnull readonly align 8 dereferenceable(8) %3, ptr noundef %4) local_unnamed_addr #9 align 2 {
  %6 = getelementptr inbounds nuw i8, ptr %0, i64 8
  %7 = load ptr, ptr %6, align 8, !tbaa !23
  %8 = load ptr, ptr %1, align 8, !tbaa !7
  store ptr %8, ptr %7, align 8, !tbaa !28
  %9 = ptrtoint ptr %2 to i64
  %10 = ptrtoint ptr %8 to i64
  %11 = sub i64 %9, %10
  %12 = trunc i64 %11 to i32
  %13 = getelementptr inbounds nuw i8, ptr %7, i64 8
  store i32 %12, ptr %13, align 8, !tbaa !30
  %14 = load ptr, ptr %3, align 8, !tbaa !7
  %15 = getelementptr inbounds nuw i8, ptr %7, i64 24
  store ptr %14, ptr %15, align 8, !tbaa !31
  %16 = ptrtoint ptr %4 to i64
  %17 = ptrtoint ptr %14 to i64
  %18 = sub i64 %16, %17
  %19 = trunc i64 %18 to i32
  %20 = getelementptr inbounds nuw i8, ptr %7, i64 32
  store i32 %19, ptr %20, align 8, !tbaa !32
  ret void
}